; Function Attrs: mustprogress uwtable
define dso_local void @_ZNK12CVQualifiers21output_qualified_typeEPK4TypeRSo(ptr nocapture noundef nonnull readonly align 8 dereferenceable(96) %0, ptr noundef nonnull %1, ptr noundef nonnull align 8 dereferenceable(8) %2) local_unnamed_addr #4 align 2 personality ptr @__gxx_personality_v0 {
  %4 = tail call noundef ptr @_ZNK4Type13get_base_typeEv(ptr noundef nonnull align 8 dereferenceable(136) %1)
  %5 = getelementptr inbounds i8, ptr %0, i64 16
  %6 = getelementptr inbounds i8, ptr %0, i64 32
  %7 = getelementptr inbounds i8, ptr %0, i64 40
  %8 = load ptr, ptr %6, align 8
  %9 = load i32, ptr %7, align 8
  %10 = load ptr, ptr %5, align 8
  %11 = ptrtoint ptr %8 to i64
  %12 = ptrtoint ptr %10 to i64
  %13 = sub i64 %11, %12
  %14 = shl nsw i64 %13, 3
  %15 = zext i32 %9 to i64
  %16 = sub nsw i64 0, %15
  %.not22 = icmp eq i64 %14, %16
  br i1 %.not22, label %._crit_edge, label %.lr.ph

.lr.ph:                                           ; preds = %3
  %17 = getelementptr inbounds i8, ptr %0, i64 56
  br label %18

18:                                               ; preds = %.lr.ph, %52
  %19 = phi ptr [ %10, %.lr.ph ], [ %56, %52 ]
  %.021 = phi i64 [ 0, %.lr.ph ], [ %53, %52 ]
  %.not = icmp eq i64 %.021, 0
  br i1 %.not, label %22, label %20

20:                                               ; preds = %18
  %21 = tail call noundef nonnull align 8 dereferenceable(8) ptr @_ZStlsISt11char_traitsIcEERSt13basic_ostreamIcT_ES5_PKc(ptr noundef nonnull align 8 dereferenceable(8) %2, ptr noundef nonnull @.str)
  %.pre = load ptr, ptr %5, align 8
  br label %22

22:                                               ; preds = %20, %18
  %23 = phi ptr [ %.pre, %20 ], [ %19, %18 ]
  %24 = sdiv i64 %.021, 64
  %25 = getelementptr inbounds i64, ptr %23, i64 %24
  %26 = and i64 %.021, -9223372036854775745
  %27 = icmp ugt i64 %26, -9223372036854775808
  %storemerge.idx.i.i.i.i.i = select i1 %27, i64 -8, i64 0
  %storemerge.i.i.i.i.i = getelementptr inbounds i8, ptr %25, i64 %storemerge.idx.i.i.i.i.i
  %28 = and i64 %.021, 63
  %29 = shl nuw i64 1, %28
  %30 = load i64, ptr %storemerge.i.i.i.i.i, align 8
  %31 = and i64 %30, %29
  %.not19 = icmp eq i64 %31, 0
  br i1 %.not19, label %38, label %32

32:                                               ; preds = %22
  %33 = tail call noundef zeroext i1 @_ZN9CGOptions6constsEv()
  br i1 %.not, label %36, label %34

34:                                               ; preds = %32
  %35 = tail call noundef nonnull align 8 dereferenceable(8) ptr @_ZStlsISt11char_traitsIcEERSt13basic_ostreamIcT_ES5_PKc(ptr noundef nonnull align 8 dereferenceable(8) %2, ptr noundef nonnull @.str.1)
  br label %36

36:                                               ; preds = %34, %32
  %37 = tail call noundef nonnull align 8 dereferenceable(8) ptr @_ZStlsISt11char_traitsIcEERSt13basic_ostreamIcT_ES5_PKc(ptr noundef nonnull align 8 dereferenceable(8) %2, ptr noundef nonnull @.str.2)
  br label %38

38:                                               ; preds = %36, %22
  %39 = load ptr, ptr %17, align 8
  %40 = getelementptr inbounds i64, ptr %39, i64 %24
  %storemerge.i.i.i.i.i18 = getelementptr inbounds i8, ptr %40, i64 %storemerge.idx.i.i.i.i.i
  %41 = load i64, ptr %storemerge.i.i.i.i.i18, align 8
  %42 = and i64 %41, %29
  %.not20 = icmp eq i64 %42, 0
  br i1 %.not20, label %49, label %43

43:                                               ; preds = %38
  %44 = tail call noundef zeroext i1 @_ZN9CGOptions9volatilesEv()
  br i1 %.not, label %47, label %45

45:                                               ; preds = %43
  %46 = tail call noundef nonnull align 8 dereferenceable(8) ptr @_ZStlsISt11char_traitsIcEERSt13basic_ostreamIcT_ES5_PKc(ptr noundef nonnull align 8 dereferenceable(8) %2, ptr noundef nonnull @.str.1)
  br label %47

47:                                               ; preds = %45, %43
  %48 = tail call noundef nonnull align 8 dereferenceable(8) ptr @_ZStlsISt11char_traitsIcEERSt13basic_ostreamIcT_ES5_PKc(ptr noundef nonnull align 8 dereferenceable(8) %2, ptr noundef nonnull @.str.3)
  br label %49

49:                                               ; preds = %47, %38
  br i1 %.not, label %50, label %52

50:                                               ; preds = %49
  tail call void @_ZNK4Type6OutputERSo(ptr noundef nonnull align 8 dereferenceable(136) %4, ptr noundef nonnull align 8 dereferenceable(8) %2)
  %51 = tail call noundef nonnull align 8 dereferenceable(8) ptr @_ZStlsISt11char_traitsIcEERSt13basic_ostreamIcT_ES5_PKc(ptr noundef nonnull align 8 dereferenceable(8) %2, ptr noundef nonnull @.str.1)
  br label %52

52:                                               ; preds = %49, %50
  %53 = add nuw i64 %.021, 1
  %54 = load ptr, ptr %6, align 8
  %55 = load i32, ptr %7, align 8
  %56 = load ptr, ptr %5, align 8
  %57 = ptrtoint ptr %54 to i64
  %58 = ptrtoint ptr %56 to i64
  %59 = sub i64 %57, %58
  %60 = shl nsw i64 %59, 3
  %61 = zext i32 %55 to i64
  %62 = add nsw i64 %60, %61
  %63 = icmp ult i64 %53, %62
  br i1 %63, label %18, label %._crit_edge, !llvm.loop !26

._crit_edge:                                      ; preds = %52, %3
  ret void
}